; Function Attrs: mustprogress nofree norecurse nosync nounwind willreturn memory(read, argmem: readwrite, inaccessiblemem: none) uwtable
define i32 @utrie_get32_77(ptr noundef readonly %0, i32 noundef %1, ptr noundef writeonly %2) local_unnamed_addr #8 {
  %4 = icmp eq ptr %0, null
  br i1 %4, label %10, label %5

5:                                                ; preds = %3
  %6 = getelementptr inbounds nuw i8, ptr %0, i64 139419
  %7 = load i8, ptr %6, align 1, !tbaa !21
  %8 = icmp ne i8 %7, 0
  %9 = icmp ugt i32 %1, 1114111
  %or.cond = or i1 %9, %8
  br i1 %or.cond, label %10, label %12

10:                                               ; preds = %5, %3
  %.not19 = icmp eq ptr %2, null
  br i1 %.not19, label %29, label %11

11:                                               ; preds = %10
  store i8 1, ptr %2, align 1, !tbaa !22
  br label %29

12:                                               ; preds = %5
  %13 = lshr i32 %1, 5
  %14 = zext nneg i32 %13 to i64
  %15 = getelementptr inbounds nuw [34848 x i32], ptr %0, i64 0, i64 %14
  %16 = load i32, ptr %15, align 4, !tbaa !12
  %.not = icmp eq ptr %2, null
  br i1 %.not, label %20, label %17

17:                                               ; preds = %12
  %18 = icmp eq i32 %16, 0
  %19 = zext i1 %18 to i8
  store i8 %19, ptr %2, align 1, !tbaa !22
  br label %20

20:                                               ; preds = %17, %12
  %21 = getelementptr inbounds nuw i8, ptr %0, i64 139392
  %22 = load ptr, ptr %21, align 8, !tbaa !10
  %23 = tail call i32 @llvm.abs.i32(i32 %16, i1 true)
  %24 = and i32 %1, 31
  %25 = add nuw nsw i32 %23, %24
  %26 = zext nneg i32 %25 to i64
  %27 = getelementptr inbounds nuw i32, ptr %22, i64 %26
  %28 = load i32, ptr %27, align 4, !tbaa !12
  br label %29

29:                                               ; preds = %10, %11, %20
  %.0 = phi i32 [ %28, %20 ], [ 0, %11 ], [ 0, %10 ]
  ret i32 %.0
}